target datalayout = "e-m:e-p270:32:32-p271:32:32-p272:64:64-i64:64-i128:128-f80:128-n8:16:32:64-S128"
target triple = "x86_64-pc-linux-gnu"

%struct._object = type { %union.anon, ptr }
%union.anon = type { i64 }
%struct.anon = type { i32, i32 }
%struct.typevarobject = type { %struct._object, ptr, ptr, ptr, ptr, ptr, ptr, ptr, i8, i8, i8 }

@.str.52 = private unnamed_addr constant [5 x i8] c"%c%U\00", align 1

; Function Attrs: alwaysinline nounwind uwtable
define internal void @Py_INCREF(ptr noundef %0) #4 {
  %2 = alloca ptr, align 8
  %3 = alloca i32, align 4
  %4 = alloca i32, align 4
  store ptr %0, ptr %2, align 8, !tbaa !4
  call void @llvm.lifetime.start.p0(i64 4, ptr %3) #6
  %5 = load ptr, ptr %2, align 8, !tbaa !4
  %6 = getelementptr inbounds nuw %struct._object, ptr %5, i32 0, i32 0
  %7 = getelementptr inbounds nuw %struct.anon, ptr %6, i32 0, i32 0
  %8 = load i32, ptr %7, align 8, !tbaa !27
  store i32 %8, ptr %3, align 4, !tbaa !13
  %9 = load i32, ptr %3, align 4, !tbaa !13
  %10 = icmp slt i32 %9, 0
  br i1 %10, label %11, label %12

11:                                               ; preds = %1
  store i32 1, ptr %4, align 4
  br label %18

12:                                               ; preds = %1
  %13 = load i32, ptr %3, align 4, !tbaa !13
  %14 = add i32 %13, 1
  %15 = load ptr, ptr %2, align 8, !tbaa !4
  %16 = getelementptr inbounds nuw %struct._object, ptr %15, i32 0, i32 0
  %17 = getelementptr inbounds nuw %struct.anon, ptr %16, i32 0, i32 0
  store i32 %14, ptr %17, align 8, !tbaa !27
  store i32 0, ptr %4, align 4
  br label %18

18:                                               ; preds = %12, %11
  call void @llvm.lifetime.end.p0(i64 4, ptr %3) #6
  %19 = load i32, ptr %4, align 4
  switch i32 %19, label %21 [
    i32 0, label %20
    i32 1, label %20
  ]

20:                                               ; preds = %18, %18
  ret void

21:                                               ; preds = %18
  unreachable
}

; Function Attrs: inlinehint nounwind uwtable
define internal ptr @_Py_NewRef(ptr noundef %0) #3 {
  %2 = alloca ptr, align 8
  store ptr %0, ptr %2, align 8, !tbaa !4
  %3 = load ptr, ptr %2, align 8, !tbaa !4
  call void @Py_INCREF(ptr noundef %3)
  %4 = load ptr, ptr %2, align 8, !tbaa !4
  ret ptr %4
}

; Function Attrs: nounwind uwtable
define internal ptr @typevar_repr(ptr noundef %0) #0 {
  %2 = alloca ptr, align 8
  %3 = alloca ptr, align 8
  %4 = alloca ptr, align 8
  %5 = alloca i32, align 4
  %6 = alloca i8, align 1
  store ptr %0, ptr %3, align 8, !tbaa !4
  call void @llvm.lifetime.start.p0(i64 8, ptr %4) #6
  %7 = load ptr, ptr %3, align 8, !tbaa !4
  store ptr %7, ptr %4, align 8, !tbaa !30
  %8 = load ptr, ptr %4, align 8, !tbaa !30
  %9 = getelementptr inbounds nuw %struct.typevarobject, ptr %8, i32 0, i32 10
  %10 = load i8, ptr %9, align 2, !tbaa !126, !range !122, !noundef !123
  %11 = trunc i8 %10 to i1
  br i1 %11, label %12, label %17

12:                                               ; preds = %1
  %13 = load ptr, ptr %4, align 8, !tbaa !30
  %14 = getelementptr inbounds nuw %struct.typevarobject, ptr %13, i32 0, i32 1
  %15 = load ptr, ptr %14, align 8, !tbaa !114
  %16 = call ptr @_Py_NewRef(ptr noundef %15)
  store ptr %16, ptr %2, align 8
  store i32 1, ptr %5, align 4
  br label %38

17:                                               ; preds = %1
  call void @llvm.lifetime.start.p0(i64 1, ptr %6) #6
  %18 = load ptr, ptr %4, align 8, !tbaa !30
  %19 = getelementptr inbounds nuw %struct.typevarobject, ptr %18, i32 0, i32 8
  %20 = load i8, ptr %19, align 8, !tbaa !124, !range !122, !noundef !123
  %21 = trunc i8 %20 to i1
  br i1 %21, label %22, label %23

22:                                               ; preds = %17
  br label %29

23:                                               ; preds = %17
  %24 = load ptr, ptr %4, align 8, !tbaa !30
  %25 = getelementptr inbounds nuw %struct.typevarobject, ptr %24, i32 0, i32 9
  %26 = load i8, ptr %25, align 1, !tbaa !125, !range !122, !noundef !123
  %27 = trunc i8 %26 to i1
  %28 = select i1 %27, i32 45, i32 126
  br label %29

29:                                               ; preds = %23, %22
  %30 = phi i32 [ 43, %22 ], [ %28, %23 ]
  %31 = trunc i32 %30 to i8
  store i8 %31, ptr %6, align 1, !tbaa !27
  %32 = load i8, ptr %6, align 1, !tbaa !27
  %33 = sext i8 %32 to i32
  %34 = load ptr, ptr %4, align 8, !tbaa !30
  %35 = getelementptr inbounds nuw %struct.typevarobject, ptr %34, i32 0, i32 1
  %36 = load ptr, ptr %35, align 8, !tbaa !114
  %37 = call ptr (ptr, ...) @PyUnicode_FromFormat(ptr noundef @.str.52, i32 noundef %33, ptr noundef %36)
  store ptr %37, ptr %2, align 8
  store i32 1, ptr %5, align 4
  call void @llvm.lifetime.end.p0(i64 1, ptr %6) #6
  br label %38

38:                                               ; preds = %29, %12
  call void @llvm.lifetime.end.p0(i64 8, ptr %4) #6
  %39 = load ptr, ptr %2, align 8
  ret ptr %39
}