; Function Attrs: nounwind uwtable
define internal ptr @typevar_repr(ptr noundef readonly captures(none) %0) #0 {
  %2 = getelementptr inbounds nuw i8, ptr %0, i64 74
  %3 = load i8, ptr %2, align 2, !tbaa !124, !range !157, !noundef !158
  %4 = trunc nuw i8 %3 to i1
  br i1 %4, label %5, label %12

5:                                                ; preds = %1
  %6 = getelementptr inbounds nuw i8, ptr %0, i64 16
  %7 = load ptr, ptr %6, align 8, !tbaa !118
  %8 = load i32, ptr %7, align 8, !tbaa !27
  %9 = icmp slt i32 %8, 0
  br i1 %9, label %_Py_NewRef.exit, label %10

10:                                               ; preds = %5
  %11 = add nuw i32 %8, 1
  store i32 %11, ptr %7, align 8, !tbaa !27
  br label %_Py_NewRef.exit

12:                                               ; preds = %1
  %13 = getelementptr inbounds nuw i8, ptr %0, i64 72
  %14 = load i8, ptr %13, align 8, !tbaa !155, !range !157, !noundef !158
  %15 = trunc nuw i8 %14 to i1
  br i1 %15, label %21, label %16

16:                                               ; preds = %12
  %17 = getelementptr inbounds nuw i8, ptr %0, i64 73
  %18 = load i8, ptr %17, align 1, !tbaa !156, !range !157, !noundef !158
  %19 = trunc nuw i8 %18 to i1
  %20 = select i1 %19, i32 45, i32 126
  br label %21

21:                                               ; preds = %12, %16
  %22 = phi i32 [ %20, %16 ], [ 43, %12 ]
  %23 = getelementptr inbounds nuw i8, ptr %0, i64 16
  %24 = load ptr, ptr %23, align 8, !tbaa !118
  %25 = tail call ptr (ptr, ...) @PyUnicode_FromFormat(ptr noundef nonnull @.str.52, i32 noundef %22, ptr noundef %24) #8
  br label %_Py_NewRef.exit

_Py_NewRef.exit:                                  ; preds = %10, %5, %21
  %.0 = phi ptr [ %25, %21 ], [ %7, %5 ], [ %7, %10 ]
  ret ptr %.0
}